target datalayout = "e-m:e-p270:32:32-p271:32:32-p272:64:64-i64:64-i128:128-f80:128-n8:16:32:64-S128"
target triple = "x86_64-pc-linux-gnu"

%struct.varattrib_1b = type { i8, [0 x i8] }
%struct.varattrib_1b_e = type { i8, i8, [0 x i8] }
%struct.anon = type { i32, [0 x i8] }
%struct.array_iter = type { ptr, ptr, ptr, ptr, i32 }

@.str.61 = private unnamed_addr constant [29 x i8] c"unsupported byval length: %d\00", align 1
@.str.62 = private unnamed_addr constant [41 x i8] c"../../../../src/include/access/tupmacs.h\00", align 1
@__func__.fetch_att = private unnamed_addr constant [10 x i8] c"fetch_att\00", align 1

; Function Attrs: inlinehint nounwind uwtable
define internal i64 @PointerGetDatum(ptr noundef %0) #2 {
  %2 = alloca ptr, align 8
  store ptr %0, ptr %2, align 8
  %3 = load ptr, ptr %2, align 8
  %4 = ptrtoint ptr %3 to i64
  ret i64 %4
}

; Function Attrs: inlinehint nounwind uwtable
define internal i64 @Int32GetDatum(i32 noundef %0) #2 {
  %2 = alloca i32, align 4
  store i32 %0, ptr %2, align 4
  %3 = load i32, ptr %2, align 4
  %4 = sext i32 %3 to i64
  ret i64 %4
}

; Function Attrs: inlinehint nounwind uwtable
define internal i64 @Int16GetDatum(i16 noundef signext %0) #2 {
  %2 = alloca i16, align 2
  store i16 %0, ptr %2, align 2
  %3 = load i16, ptr %2, align 2
  %4 = sext i16 %3 to i64
  ret i64 %4
}

; Function Attrs: inlinehint nounwind uwtable
define internal i64 @CharGetDatum(i8 noundef signext %0) #2 {
  %2 = alloca i8, align 1
  store i8 %0, ptr %2, align 1
  %3 = load i8, ptr %2, align 1
  %4 = sext i8 %3 to i64
  ret i64 %4
}

; Function Attrs: inlinehint nounwind uwtable
define internal i64 @fetch_att(ptr noundef %0, i1 noundef zeroext %1, i32 noundef %2) #2 {
  %4 = alloca i64, align 8
  %5 = alloca ptr, align 8
  %6 = alloca i8, align 1
  %7 = alloca i32, align 4
  store ptr %0, ptr %5, align 8
  %8 = zext i1 %1 to i8
  store i8 %8, ptr %6, align 1
  store i32 %2, ptr %7, align 4
  %9 = load i8, ptr %6, align 1, !range !4, !noundef !5
  %10 = trunc i8 %9 to i1
  br i1 %10, label %11, label %39

11:                                               ; preds = %3
  %12 = load i32, ptr %7, align 4
  switch i32 %12, label %28 [
    i32 1, label %13
    i32 2, label %17
    i32 4, label %21
    i32 8, label %25
  ]

13:                                               ; preds = %11
  %14 = load ptr, ptr %5, align 8
  %15 = load i8, ptr %14, align 1
  %16 = call i64 @CharGetDatum(i8 noundef signext %15)
  store i64 %16, ptr %4, align 8
  br label %42

17:                                               ; preds = %11
  %18 = load ptr, ptr %5, align 8
  %19 = load i16, ptr %18, align 2
  %20 = call i64 @Int16GetDatum(i16 noundef signext %19)
  store i64 %20, ptr %4, align 8
  br label %42

21:                                               ; preds = %11
  %22 = load ptr, ptr %5, align 8
  %23 = load i32, ptr %22, align 4
  %24 = call i64 @Int32GetDatum(i32 noundef %23)
  store i64 %24, ptr %4, align 8
  br label %42

25:                                               ; preds = %11
  %26 = load ptr, ptr %5, align 8
  %27 = load i64, ptr %26, align 8
  store i64 %27, ptr %4, align 8
  br label %42

28:                                               ; preds = %11
  br label %29

29:                                               ; preds = %28
  br i1 true, label %30, label %32

30:                                               ; preds = %29
  %31 = call zeroext i1 @errstart_cold(i32 noundef 21, ptr noundef null) #13
  br i1 %31, label %34, label %37

32:                                               ; preds = %29
  %33 = call zeroext i1 @errstart(i32 noundef 21, ptr noundef null)
  br i1 %33, label %34, label %37

34:                                               ; preds = %32, %30
  %35 = load i32, ptr %7, align 4
  %36 = call i32 (ptr, ...) @errmsg_internal(ptr noundef @.str.61, i32 noundef %35)
  call void @errfinish(ptr noundef @.str.62, i32 noundef 70, ptr noundef @__func__.fetch_att)
  br label %37

37:                                               ; preds = %34, %32, %30
  unreachable

38:                                               ; No predecessors!
  store i64 0, ptr %4, align 8
  br label %42

39:                                               ; preds = %3
  %40 = load ptr, ptr %5, align 8
  %41 = call i64 @PointerGetDatum(ptr noundef %40)
  store i64 %41, ptr %4, align 8
  br label %42

42:                                               ; preds = %39, %38, %25, %21, %17, %13
  %43 = load i64, ptr %4, align 8
  ret i64 %43
}

; Function Attrs: inlinehint nounwind uwtable
define internal i64 @array_iter_next(ptr noundef %0, ptr noundef %1, i32 noundef %2, i32 noundef %3, i1 noundef zeroext %4, i8 noundef signext %5) #2 {
  %7 = alloca ptr, align 8
  %8 = alloca ptr, align 8
  %9 = alloca i32, align 4
  %10 = alloca i32, align 4
  %11 = alloca i8, align 1
  %12 = alloca i8, align 1
  %13 = alloca i64, align 8
  store ptr %0, ptr %7, align 8
  store ptr %1, ptr %8, align 8
  store i32 %2, ptr %9, align 4
  store i32 %3, ptr %10, align 4
  %14 = zext i1 %4 to i8
  store i8 %14, ptr %11, align 1
  store i8 %5, ptr %12, align 1
  call void @llvm.lifetime.start.p0(i64 8, ptr %13) #11
  %15 = load ptr, ptr %7, align 8
  %16 = getelementptr inbounds nuw %struct.array_iter, ptr %15, i32 0, i32 0
  %17 = load ptr, ptr %16, align 8
  %18 = icmp ne ptr %17, null
  br i1 %18, label %19, label %47

19:                                               ; preds = %6
  %20 = load ptr, ptr %7, align 8
  %21 = getelementptr inbounds nuw %struct.array_iter, ptr %20, i32 0, i32 0
  %22 = load ptr, ptr %21, align 8
  %23 = load i32, ptr %9, align 4
  %24 = sext i32 %23 to i64
  %25 = getelementptr inbounds i64, ptr %22, i64 %24
  %26 = load i64, ptr %25, align 8
  store i64 %26, ptr %13, align 8
  %27 = load ptr, ptr %7, align 8
  %28 = getelementptr inbounds nuw %struct.array_iter, ptr %27, i32 0, i32 1
  %29 = load ptr, ptr %28, align 8
  %30 = icmp ne ptr %29, null
  br i1 %30, label %31, label %41

31:                                               ; preds = %19
  %32 = load ptr, ptr %7, align 8
  %33 = getelementptr inbounds nuw %struct.array_iter, ptr %32, i32 0, i32 1
  %34 = load ptr, ptr %33, align 8
  %35 = load i32, ptr %9, align 4
  %36 = sext i32 %35 to i64
  %37 = getelementptr inbounds i8, ptr %34, i64 %36
  %38 = load i8, ptr %37, align 1, !range !4, !noundef !5
  %39 = trunc i8 %38 to i1
  %40 = zext i1 %39 to i32
  br label %42

41:                                               ; preds = %19
  br label %42

42:                                               ; preds = %41, %31
  %43 = phi i32 [ %40, %31 ], [ 0, %41 ]
  %44 = icmp ne i32 %43, 0
  %45 = load ptr, ptr %8, align 8
  %46 = zext i1 %44 to i8
  store i8 %46, ptr %45, align 1
  br label %247

47:                                               ; preds = %6
  %48 = load ptr, ptr %7, align 8
  %49 = getelementptr inbounds nuw %struct.array_iter, ptr %48, i32 0, i32 3
  %50 = load ptr, ptr %49, align 8
  %51 = icmp ne ptr %50, null
  br i1 %51, label %52, label %65

52:                                               ; preds = %47
  %53 = load ptr, ptr %7, align 8
  %54 = getelementptr inbounds nuw %struct.array_iter, ptr %53, i32 0, i32 3
  %55 = load ptr, ptr %54, align 8
  %56 = load i8, ptr %55, align 1
  %57 = zext i8 %56 to i32
  %58 = load ptr, ptr %7, align 8
  %59 = getelementptr inbounds nuw %struct.array_iter, ptr %58, i32 0, i32 4
  %60 = load i32, ptr %59, align 8
  %61 = and i32 %57, %60
  %62 = icmp eq i32 %61, 0
  br i1 %62, label %63, label %65

63:                                               ; preds = %52
  %64 = load ptr, ptr %8, align 8
  store i8 1, ptr %64, align 1
  store i64 0, ptr %13, align 8
  br label %224

65:                                               ; preds = %52, %47
  %66 = load ptr, ptr %8, align 8
  store i8 0, ptr %66, align 1
  %67 = load ptr, ptr %7, align 8
  %68 = getelementptr inbounds nuw %struct.array_iter, ptr %67, i32 0, i32 2
  %69 = load ptr, ptr %68, align 8
  %70 = load i8, ptr %11, align 1, !range !4, !noundef !5
  %71 = trunc i8 %70 to i1
  %72 = load i32, ptr %10, align 4
  %73 = call i64 @fetch_att(ptr noundef %69, i1 noundef zeroext %71, i32 noundef %72)
  store i64 %73, ptr %13, align 8
  %74 = load i32, ptr %10, align 4
  %75 = icmp sgt i32 %74, 0
  br i1 %75, label %76, label %83

76:                                               ; preds = %65
  %77 = load ptr, ptr %7, align 8
  %78 = getelementptr inbounds nuw %struct.array_iter, ptr %77, i32 0, i32 2
  %79 = load ptr, ptr %78, align 8
  %80 = load i32, ptr %10, align 4
  %81 = sext i32 %80 to i64
  %82 = getelementptr inbounds i8, ptr %79, i64 %81
  br label %174

83:                                               ; preds = %65
  %84 = load i32, ptr %10, align 4
  %85 = icmp eq i32 %84, -1
  br i1 %85, label %86, label %162

86:                                               ; preds = %83
  %87 = load ptr, ptr %7, align 8
  %88 = getelementptr inbounds nuw %struct.array_iter, ptr %87, i32 0, i32 2
  %89 = load ptr, ptr %88, align 8
  %90 = load ptr, ptr %7, align 8
  %91 = getelementptr inbounds nuw %struct.array_iter, ptr %90, i32 0, i32 2
  %92 = load ptr, ptr %91, align 8
  %93 = getelementptr inbounds nuw %struct.varattrib_1b, ptr %92, i32 0, i32 0
  %94 = load i8, ptr %93, align 1
  %95 = zext i8 %94 to i32
  %96 = icmp eq i32 %95, 1
  br i1 %96, label %97, label %130

97:                                               ; preds = %86
  %98 = load ptr, ptr %7, align 8
  %99 = getelementptr inbounds nuw %struct.array_iter, ptr %98, i32 0, i32 2
  %100 = load ptr, ptr %99, align 8
  %101 = getelementptr inbounds nuw %struct.varattrib_1b_e, ptr %100, i32 0, i32 1
  %102 = load i8, ptr %101, align 1
  %103 = zext i8 %102 to i32
  %104 = icmp eq i32 %103, 1
  br i1 %104, label %105, label %106

105:                                              ; preds = %97
  br label %127

106:                                              ; preds = %97
  %107 = load ptr, ptr %7, align 8
  %108 = getelementptr inbounds nuw %struct.array_iter, ptr %107, i32 0, i32 2
  %109 = load ptr, ptr %108, align 8
  %110 = getelementptr inbounds nuw %struct.varattrib_1b_e, ptr %109, i32 0, i32 1
  %111 = load i8, ptr %110, align 1
  %112 = zext i8 %111 to i32
  %113 = and i32 %112, -2
  %114 = icmp eq i32 %113, 2
  br i1 %114, label %115, label %116

115:                                              ; preds = %106
  br label %125

116:                                              ; preds = %106
  %117 = load ptr, ptr %7, align 8
  %118 = getelementptr inbounds nuw %struct.array_iter, ptr %117, i32 0, i32 2
  %119 = load ptr, ptr %118, align 8
  %120 = getelementptr inbounds nuw %struct.varattrib_1b_e, ptr %119, i32 0, i32 1
  %121 = load i8, ptr %120, align 1
  %122 = zext i8 %121 to i32
  %123 = icmp eq i32 %122, 18
  %124 = select i1 %123, i64 16, i64 0
  br label %125

125:                                              ; preds = %116, %115
  %126 = phi i64 [ 8, %115 ], [ %124, %116 ]
  br label %127

127:                                              ; preds = %125, %105
  %128 = phi i64 [ 8, %105 ], [ %126, %125 ]
  %129 = add i64 2, %128
  br label %159

130:                                              ; preds = %86
  %131 = load ptr, ptr %7, align 8
  %132 = getelementptr inbounds nuw %struct.array_iter, ptr %131, i32 0, i32 2
  %133 = load ptr, ptr %132, align 8
  %134 = getelementptr inbounds nuw %struct.varattrib_1b, ptr %133, i32 0, i32 0
  %135 = load i8, ptr %134, align 1
  %136 = zext i8 %135 to i32
  %137 = and i32 %136, 1
  %138 = icmp eq i32 %137, 1
  br i1 %138, label %139, label %148

139:                                              ; preds = %130
  %140 = load ptr, ptr %7, align 8
  %141 = getelementptr inbounds nuw %struct.array_iter, ptr %140, i32 0, i32 2
  %142 = load ptr, ptr %141, align 8
  %143 = getelementptr inbounds nuw %struct.varattrib_1b, ptr %142, i32 0, i32 0
  %144 = load i8, ptr %143, align 1
  %145 = zext i8 %144 to i32
  %146 = ashr i32 %145, 1
  %147 = and i32 %146, 127
  br label %156

148:                                              ; preds = %130
  %149 = load ptr, ptr %7, align 8
  %150 = getelementptr inbounds nuw %struct.array_iter, ptr %149, i32 0, i32 2
  %151 = load ptr, ptr %150, align 8
  %152 = getelementptr inbounds nuw %struct.anon, ptr %151, i32 0, i32 0
  %153 = load i32, ptr %152, align 4
  %154 = lshr i32 %153, 2
  %155 = and i32 %154, 1073741823
  br label %156

156:                                              ; preds = %148, %139
  %157 = phi i32 [ %147, %139 ], [ %155, %148 ]
  %158 = zext i32 %157 to i64
  br label %159

159:                                              ; preds = %156, %127
  %160 = phi i64 [ %129, %127 ], [ %158, %156 ]
  %161 = getelementptr inbounds nuw i8, ptr %89, i64 %160
  br label %172

162:                                              ; preds = %83
  %163 = load ptr, ptr %7, align 8
  %164 = getelementptr inbounds nuw %struct.array_iter, ptr %163, i32 0, i32 2
  %165 = load ptr, ptr %164, align 8
  %166 = load ptr, ptr %7, align 8
  %167 = getelementptr inbounds nuw %struct.array_iter, ptr %166, i32 0, i32 2
  %168 = load ptr, ptr %167, align 8
  %169 = call i64 @strlen(ptr noundef %168) #12
  %170 = add i64 %169, 1
  %171 = getelementptr inbounds nuw i8, ptr %165, i64 %170
  br label %172

172:                                              ; preds = %162, %159
  %173 = phi ptr [ %161, %159 ], [ %171, %162 ]
  br label %174

174:                                              ; preds = %172, %76
  %175 = phi ptr [ %82, %76 ], [ %173, %172 ]
  %176 = load ptr, ptr %7, align 8
  %177 = getelementptr inbounds nuw %struct.array_iter, ptr %176, i32 0, i32 2
  store ptr %175, ptr %177, align 8
  %178 = load i8, ptr %12, align 1
  %179 = sext i8 %178 to i32
  %180 = icmp eq i32 %179, 105
  br i1 %180, label %181, label %188

181:                                              ; preds = %174
  %182 = load ptr, ptr %7, align 8
  %183 = getelementptr inbounds nuw %struct.array_iter, ptr %182, i32 0, i32 2
  %184 = load ptr, ptr %183, align 8
  %185 = ptrtoint ptr %184 to i64
  %186 = add i64 %185, 3
  %187 = and i64 %186, -4
  br label %219

188:                                              ; preds = %174
  %189 = load i8, ptr %12, align 1
  %190 = sext i8 %189 to i32
  %191 = icmp eq i32 %190, 99
  br i1 %191, label %192, label %197

192:                                              ; preds = %188
  %193 = load ptr, ptr %7, align 8
  %194 = getelementptr inbounds nuw %struct.array_iter, ptr %193, i32 0, i32 2
  %195 = load ptr, ptr %194, align 8
  %196 = ptrtoint ptr %195 to i64
  br label %217

197:                                              ; preds = %188
  %198 = load i8, ptr %12, align 1
  %199 = sext i8 %198 to i32
  %200 = icmp eq i32 %199, 100
  br i1 %200, label %201, label %208

201:                                              ; preds = %197
  %202 = load ptr, ptr %7, align 8
  %203 = getelementptr inbounds nuw %struct.array_iter, ptr %202, i32 0, i32 2
  %204 = load ptr, ptr %203, align 8
  %205 = ptrtoint ptr %204 to i64
  %206 = add i64 %205, 7
  %207 = and i64 %206, -8
  br label %215

208:                                              ; preds = %197
  %209 = load ptr, ptr %7, align 8
  %210 = getelementptr inbounds nuw %struct.array_iter, ptr %209, i32 0, i32 2
  %211 = load ptr, ptr %210, align 8
  %212 = ptrtoint ptr %211 to i64
  %213 = add i64 %212, 1
  %214 = and i64 %213, -2
  br label %215

215:                                              ; preds = %208, %201
  %216 = phi i64 [ %207, %201 ], [ %214, %208 ]
  br label %217

217:                                              ; preds = %215, %192
  %218 = phi i64 [ %196, %192 ], [ %216, %215 ]
  br label %219

219:                                              ; preds = %217, %181
  %220 = phi i64 [ %187, %181 ], [ %218, %217 ]
  %221 = inttoptr i64 %220 to ptr
  %222 = load ptr, ptr %7, align 8
  %223 = getelementptr inbounds nuw %struct.array_iter, ptr %222, i32 0, i32 2
  store ptr %221, ptr %223, align 8
  br label %224

224:                                              ; preds = %219, %63
  %225 = load ptr, ptr %7, align 8
  %226 = getelementptr inbounds nuw %struct.array_iter, ptr %225, i32 0, i32 4
  %227 = load i32, ptr %226, align 8
  %228 = shl i32 %227, 1
  store i32 %228, ptr %226, align 8
  %229 = load ptr, ptr %7, align 8
  %230 = getelementptr inbounds nuw %struct.array_iter, ptr %229, i32 0, i32 4
  %231 = load i32, ptr %230, align 8
  %232 = icmp eq i32 %231, 256
  br i1 %232, label %233, label %246

233:                                              ; preds = %224
  %234 = load ptr, ptr %7, align 8
  %235 = getelementptr inbounds nuw %struct.array_iter, ptr %234, i32 0, i32 3
  %236 = load ptr, ptr %235, align 8
  %237 = icmp ne ptr %236, null
  br i1 %237, label %238, label %243

238:                                              ; preds = %233
  %239 = load ptr, ptr %7, align 8
  %240 = getelementptr inbounds nuw %struct.array_iter, ptr %239, i32 0, i32 3
  %241 = load ptr, ptr %240, align 8
  %242 = getelementptr inbounds nuw i8, ptr %241, i32 1
  store ptr %242, ptr %240, align 8
  br label %243

243:                                              ; preds = %238, %233
  %244 = load ptr, ptr %7, align 8
  %245 = getelementptr inbounds nuw %struct.array_iter, ptr %244, i32 0, i32 4
  store i32 1, ptr %245, align 8
  br label %246

246:                                              ; preds = %243, %224
  br label %247

247:                                              ; preds = %246, %42
  %248 = load i64, ptr %13, align 8
  call void @llvm.lifetime.end.p0(i64 8, ptr %13) #11
  ret i64 %248
}