; Function Attrs: inlinehint nounwind uwtable
define internal fastcc i64 @array_iter_next(ptr noundef captures(none) %0, ptr noundef writeonly captures(none) initializes((0, 1)) %1, i32 noundef %2, i32 noundef range(i32 -32768, 32768) %3, i1 noundef zeroext %4, i8 noundef signext %5) unnamed_addr #6 {
  %7 = load ptr, ptr %0, align 8
  %.not = icmp eq ptr %7, null
  br i1 %.not, label %19, label %8

8:                                                ; preds = %6
  %9 = sext i32 %2 to i64
  %10 = getelementptr inbounds i64, ptr %7, i64 %9
  %11 = load i64, ptr %10, align 8
  %12 = getelementptr inbounds nuw i8, ptr %0, i64 8
  %13 = load ptr, ptr %12, align 8
  %.not55 = icmp eq ptr %13, null
  br i1 %.not55, label %17, label %14

14:                                               ; preds = %8
  %15 = getelementptr inbounds i8, ptr %13, i64 %9
  %16 = load i8, ptr %15, align 1, !range !4, !noundef !5
  br label %17

17:                                               ; preds = %8, %14
  %18 = phi i8 [ %16, %14 ], [ 0, %8 ]
  store i8 %18, ptr %1, align 1
  br label %109

19:                                               ; preds = %6
  %20 = getelementptr inbounds nuw i8, ptr %0, i64 24
  %21 = load ptr, ptr %20, align 8
  %.not52 = icmp eq ptr %21, null
  br i1 %.not52, label %30, label %22

22:                                               ; preds = %19
  %23 = load i8, ptr %21, align 1
  %24 = zext i8 %23 to i32
  %25 = getelementptr inbounds nuw i8, ptr %0, i64 32
  %26 = load i32, ptr %25, align 8
  %27 = and i32 %26, %24
  %28 = icmp eq i32 %27, 0
  br i1 %28, label %29, label %30

29:                                               ; preds = %22
  store i8 1, ptr %1, align 1
  br label %99

30:                                               ; preds = %22, %19
  store i8 0, ptr %1, align 1
  %31 = getelementptr inbounds nuw i8, ptr %0, i64 16
  %32 = load ptr, ptr %31, align 8
  br i1 %4, label %33, label %fetch_att.exit

33:                                               ; preds = %30
  switch i32 %3, label %45 [
    i32 1, label %34
    i32 2, label %37
    i32 4, label %40
    i32 8, label %43
  ]

34:                                               ; preds = %33
  %35 = load i8, ptr %32, align 1
  %36 = sext i8 %35 to i64
  br label %fetch_att.exit.thread

37:                                               ; preds = %33
  %38 = load i16, ptr %32, align 2
  %39 = sext i16 %38 to i64
  br label %fetch_att.exit.thread

40:                                               ; preds = %33
  %41 = load i32, ptr %32, align 4
  %42 = sext i32 %41 to i64
  br label %fetch_att.exit.thread

43:                                               ; preds = %33
  %44 = load i64, ptr %32, align 8
  br label %fetch_att.exit.thread

45:                                               ; preds = %33
  %46 = tail call zeroext i1 @errstart_cold(i32 noundef 21, ptr noundef null) #20
  tail call void @llvm.assume(i1 %46)
  %47 = tail call i32 (ptr, ...) @errmsg_internal(ptr noundef nonnull @.str.61, i32 noundef %3) #18
  tail call void @errfinish(ptr noundef nonnull @.str.62, i32 noundef 70, ptr noundef nonnull @__func__.fetch_att) #18
  unreachable

fetch_att.exit:                                   ; preds = %30
  %48 = ptrtoint ptr %32 to i64
  %49 = icmp sgt i32 %3, 0
  br i1 %49, label %fetch_att.exit.thread, label %52

fetch_att.exit.thread:                            ; preds = %43, %40, %37, %34, %fetch_att.exit
  %.0.i59 = phi i64 [ %48, %fetch_att.exit ], [ %36, %34 ], [ %39, %37 ], [ %42, %40 ], [ %44, %43 ]
  %50 = zext nneg i32 %3 to i64
  %51 = getelementptr inbounds nuw i8, ptr %32, i64 %50
  br label %84

52:                                               ; preds = %fetch_att.exit
  %53 = icmp eq i32 %3, -1
  br i1 %53, label %54, label %80

54:                                               ; preds = %52
  %55 = load i8, ptr %32, align 1
  %56 = zext i8 %55 to i32
  %57 = icmp eq i8 %55, 1
  br i1 %57, label %58, label %67

58:                                               ; preds = %54
  %59 = getelementptr inbounds nuw i8, ptr %32, i64 1
  %60 = load i8, ptr %59, align 1
  %61 = icmp eq i8 %60, 1
  %62 = and i8 %60, -2
  %63 = icmp eq i8 %62, 2
  %or.cond = or i1 %61, %63
  %64 = icmp eq i8 %60, 18
  %65 = select i1 %64, i64 18, i64 2
  %66 = select i1 %or.cond, i64 10, i64 %65
  br label %77

67:                                               ; preds = %54
  %68 = and i32 %56, 1
  %.not53 = icmp eq i32 %68, 0
  br i1 %.not53, label %71, label %69

69:                                               ; preds = %67
  %70 = lshr i32 %56, 1
  br label %74

71:                                               ; preds = %67
  %72 = load i32, ptr %32, align 4
  %73 = lshr i32 %72, 2
  br label %74

74:                                               ; preds = %71, %69
  %75 = phi i32 [ %70, %69 ], [ %73, %71 ]
  %76 = zext nneg i32 %75 to i64
  br label %77

77:                                               ; preds = %74, %58
  %78 = phi i64 [ %66, %58 ], [ %76, %74 ]
  %79 = getelementptr inbounds nuw i8, ptr %32, i64 %78
  br label %84

80:                                               ; preds = %52
  %81 = tail call i64 @strlen(ptr noundef nonnull dereferenceable(1) %32) #19
  %82 = getelementptr i8, ptr %32, i64 %81
  %83 = getelementptr i8, ptr %82, i64 1
  br label %84

84:                                               ; preds = %77, %80, %fetch_att.exit.thread
  %.0.i58 = phi i64 [ %.0.i59, %fetch_att.exit.thread ], [ %48, %77 ], [ %48, %80 ]
  %85 = phi ptr [ %51, %fetch_att.exit.thread ], [ %79, %77 ], [ %83, %80 ]
  %86 = ptrtoint ptr %85 to i64
  switch i8 %5, label %93 [
    i8 105, label %87
    i8 99, label %96
    i8 100, label %90
  ]

87:                                               ; preds = %84
  %88 = add i64 %86, 3
  %89 = and i64 %88, -4
  br label %96

90:                                               ; preds = %84
  %91 = add i64 %86, 7
  %92 = and i64 %91, -8
  br label %96

93:                                               ; preds = %84
  %94 = add i64 %86, 1
  %95 = and i64 %94, -2
  br label %96

96:                                               ; preds = %84, %93, %90, %87
  %97 = phi i64 [ %89, %87 ], [ %92, %90 ], [ %95, %93 ], [ %86, %84 ]
  %98 = inttoptr i64 %97 to ptr
  store ptr %98, ptr %31, align 8
  br label %99

99:                                               ; preds = %96, %29
  %.1 = phi i64 [ 0, %29 ], [ %.0.i58, %96 ]
  %100 = getelementptr inbounds nuw i8, ptr %0, i64 32
  %101 = load i32, ptr %100, align 8
  %102 = shl i32 %101, 1
  store i32 %102, ptr %100, align 8
  %103 = icmp eq i32 %102, 256
  br i1 %103, label %104, label %109

104:                                              ; preds = %99
  %105 = load ptr, ptr %20, align 8
  %.not54 = icmp eq ptr %105, null
  br i1 %.not54, label %108, label %106

106:                                              ; preds = %104
  %107 = getelementptr inbounds nuw i8, ptr %105, i64 1
  store ptr %107, ptr %20, align 8
  br label %108

108:                                              ; preds = %106, %104
  store i32 1, ptr %100, align 8
  br label %109

109:                                              ; preds = %99, %108, %17
  %.0 = phi i64 [ %11, %17 ], [ %.1, %108 ], [ %.1, %99 ]
  ret i64 %.0
}